target datalayout = "e-m:e-p270:32:32-p271:32:32-p272:64:64-i64:64-i128:128-f80:128-n8:16:32:64-S128"
target triple = "x86_64-unknown-linux-gnu"

%struct.Type = type { i32, i32, i32, i8, i8, ptr, ptr, ptr, ptr, i32, ptr, ptr, ptr, i8, i8, ptr, ptr, i8, ptr }
%struct.Member = type { ptr, ptr, ptr, ptr, i32, i32, i32, i8, i32, i32 }
%struct.Initializer = type { ptr, ptr, ptr, i8, ptr, ptr, ptr }

; Function Attrs: nounwind uwtable
define internal ptr @new_initializer(ptr noundef %ty, i1 noundef zeroext %is_flexible) #0 {
entry:
  %retval = alloca ptr, align 8
  %ty.addr = alloca ptr, align 8
  %is_flexible.addr = alloca i8, align 1
  %init = alloca ptr, align 8
  %i = alloca i32, align 4
  %len = alloca i32, align 4
  %mem = alloca ptr, align 8
  %mem28 = alloca ptr, align 8
  %child = alloca ptr, align 8
  store ptr %ty, ptr %ty.addr, align 8
  %frombool = zext i1 %is_flexible to i8
  store i8 %frombool, ptr %is_flexible.addr, align 1
  %call = call noalias ptr @calloc(i64 noundef 1, i64 noundef 56) #8
  store ptr %call, ptr %init, align 8
  %0 = load ptr, ptr %ty.addr, align 8
  %1 = load ptr, ptr %init, align 8
  %ty1 = getelementptr inbounds %struct.Initializer, ptr %1, i32 0, i32 1
  store ptr %0, ptr %ty1, align 8
  %2 = load ptr, ptr %ty.addr, align 8
  %kind = getelementptr inbounds %struct.Type, ptr %2, i32 0, i32 0
  %3 = load i32, ptr %kind, align 8
  %cmp = icmp eq i32 %3, 12
  br i1 %cmp, label %if.then, label %if.end11

if.then:                                          ; preds = %entry
  %4 = load i8, ptr %is_flexible.addr, align 1
  %tobool = trunc i8 %4 to i1
  br i1 %tobool, label %land.lhs.true, label %if.end

land.lhs.true:                                    ; preds = %if.then
  %5 = load ptr, ptr %ty.addr, align 8
  %size = getelementptr inbounds %struct.Type, ptr %5, i32 0, i32 1
  %6 = load i32, ptr %size, align 4
  %cmp2 = icmp slt i32 %6, 0
  br i1 %cmp2, label %if.then3, label %if.end

if.then3:                                         ; preds = %land.lhs.true
  %7 = load ptr, ptr %init, align 8
  %is_flexible4 = getelementptr inbounds %struct.Initializer, ptr %7, i32 0, i32 3
  store i8 1, ptr %is_flexible4, align 8
  %8 = load ptr, ptr %init, align 8
  store ptr %8, ptr %retval, align 8
  br label %return

if.end:                                           ; preds = %land.lhs.true, %if.then
  %9 = load ptr, ptr %ty.addr, align 8
  %array_len = getelementptr inbounds %struct.Type, ptr %9, i32 0, i32 9
  %10 = load i32, ptr %array_len, align 8
  %conv = sext i32 %10 to i64
  %call5 = call noalias ptr @calloc(i64 noundef %conv, i64 noundef 8) #8
  %11 = load ptr, ptr %init, align 8
  %children = getelementptr inbounds %struct.Initializer, ptr %11, i32 0, i32 5
  store ptr %call5, ptr %children, align 8
  store i32 0, ptr %i, align 4
  br label %for.cond

for.cond:                                         ; preds = %for.inc, %if.end
  %12 = load i32, ptr %i, align 4
  %13 = load ptr, ptr %ty.addr, align 8
  %array_len6 = getelementptr inbounds %struct.Type, ptr %13, i32 0, i32 9
  %14 = load i32, ptr %array_len6, align 8
  %cmp7 = icmp slt i32 %12, %14
  br i1 %cmp7, label %for.body, label %for.end

for.body:                                         ; preds = %for.cond
  %15 = load ptr, ptr %ty.addr, align 8
  %base = getelementptr inbounds %struct.Type, ptr %15, i32 0, i32 6
  %16 = load ptr, ptr %base, align 8
  %call9 = call ptr @new_initializer(ptr noundef %16, i1 noundef zeroext false)
  %17 = load ptr, ptr %init, align 8
  %children10 = getelementptr inbounds %struct.Initializer, ptr %17, i32 0, i32 5
  %18 = load ptr, ptr %children10, align 8
  %19 = load i32, ptr %i, align 4
  %idxprom = sext i32 %19 to i64
  %arrayidx = getelementptr inbounds ptr, ptr %18, i64 %idxprom
  store ptr %call9, ptr %arrayidx, align 8
  br label %for.inc

for.inc:                                          ; preds = %for.body
  %20 = load i32, ptr %i, align 4
  %inc = add nsw i32 %20, 1
  store i32 %inc, ptr %i, align 4
  br label %for.cond, !llvm.loop !31

for.end:                                          ; preds = %for.cond
  %21 = load ptr, ptr %init, align 8
  store ptr %21, ptr %retval, align 8
  br label %return

if.end11:                                         ; preds = %entry
  %22 = load ptr, ptr %ty.addr, align 8
  %kind12 = getelementptr inbounds %struct.Type, ptr %22, i32 0, i32 0
  %23 = load i32, ptr %kind12, align 8
  %cmp13 = icmp eq i32 %23, 14
  br i1 %cmp13, label %if.then18, label %lor.lhs.false

lor.lhs.false:                                    ; preds = %if.end11
  %24 = load ptr, ptr %ty.addr, align 8
  %kind15 = getelementptr inbounds %struct.Type, ptr %24, i32 0, i32 0
  %25 = load i32, ptr %kind15, align 8
  %cmp16 = icmp eq i32 %25, 15
  br i1 %cmp16, label %if.then18, label %if.end60

if.then18:                                        ; preds = %lor.lhs.false, %if.end11
  store i32 0, ptr %len, align 4
  %26 = load ptr, ptr %ty.addr, align 8
  %members = getelementptr inbounds %struct.Type, ptr %26, i32 0, i32 12
  %27 = load ptr, ptr %members, align 8
  store ptr %27, ptr %mem, align 8
  br label %for.cond19

for.cond19:                                       ; preds = %for.inc23, %if.then18
  %28 = load ptr, ptr %mem, align 8
  %tobool20 = icmp ne ptr %28, null
  br i1 %tobool20, label %for.body21, label %for.end24

for.body21:                                       ; preds = %for.cond19
  %29 = load i32, ptr %len, align 4
  %inc22 = add nsw i32 %29, 1
  store i32 %inc22, ptr %len, align 4
  br label %for.inc23

for.inc23:                                        ; preds = %for.body21
  %30 = load ptr, ptr %mem, align 8
  %next = getelementptr inbounds %struct.Member, ptr %30, i32 0, i32 0
  %31 = load ptr, ptr %next, align 8
  store ptr %31, ptr %mem, align 8
  br label %for.cond19, !llvm.loop !32

for.end24:                                        ; preds = %for.cond19
  %32 = load i32, ptr %len, align 4
  %conv25 = sext i32 %32 to i64
  %call26 = call noalias ptr @calloc(i64 noundef %conv25, i64 noundef 8) #8
  %33 = load ptr, ptr %init, align 8
  %children27 = getelementptr inbounds %struct.Initializer, ptr %33, i32 0, i32 5
  store ptr %call26, ptr %children27, align 8
  %34 = load ptr, ptr %ty.addr, align 8
  %members29 = getelementptr inbounds %struct.Type, ptr %34, i32 0, i32 12
  %35 = load ptr, ptr %members29, align 8
  store ptr %35, ptr %mem28, align 8
  br label %for.cond30

for.cond30:                                       ; preds = %for.inc57, %for.end24
  %36 = load ptr, ptr %mem28, align 8
  %tobool31 = icmp ne ptr %36, null
  br i1 %tobool31, label %for.body32, label %for.end59

for.body32:                                       ; preds = %for.cond30
  %37 = load i8, ptr %is_flexible.addr, align 1
  %tobool33 = trunc i8 %37 to i1
  br i1 %tobool33, label %land.lhs.true35, label %if.else

land.lhs.true35:                                  ; preds = %for.body32
  %38 = load ptr, ptr %ty.addr, align 8
  %is_flexible36 = getelementptr inbounds %struct.Type, ptr %38, i32 0, i32 13
  %39 = load i8, ptr %is_flexible36, align 8
  %tobool37 = trunc i8 %39 to i1
  br i1 %tobool37, label %land.lhs.true39, label %if.else

land.lhs.true39:                                  ; preds = %land.lhs.true35
  %40 = load ptr, ptr %mem28, align 8
  %next40 = getelementptr inbounds %struct.Member, ptr %40, i32 0, i32 0
  %41 = load ptr, ptr %next40, align 8
  %tobool41 = icmp ne ptr %41, null
  br i1 %tobool41, label %if.else, label %if.then42

if.then42:                                        ; preds = %land.lhs.true39
  %call43 = call noalias ptr @calloc(i64 noundef 1, i64 noundef 56) #8
  store ptr %call43, ptr %child, align 8
  %42 = load ptr, ptr %mem28, align 8
  %ty44 = getelementptr inbounds %struct.Member, ptr %42, i32 0, i32 1
  %43 = load ptr, ptr %ty44, align 8
  %44 = load ptr, ptr %child, align 8
  %ty45 = getelementptr inbounds %struct.Initializer, ptr %44, i32 0, i32 1
  store ptr %43, ptr %ty45, align 8
  %45 = load ptr, ptr %child, align 8
  %is_flexible46 = getelementptr inbounds %struct.Initializer, ptr %45, i32 0, i32 3
  store i8 1, ptr %is_flexible46, align 8
  %46 = load ptr, ptr %child, align 8
  %47 = load ptr, ptr %init, align 8
  %children47 = getelementptr inbounds %struct.Initializer, ptr %47, i32 0, i32 5
  %48 = load ptr, ptr %children47, align 8
  %49 = load ptr, ptr %mem28, align 8
  %idx = getelementptr inbounds %struct.Member, ptr %49, i32 0, i32 4
  %50 = load i32, ptr %idx, align 8
  %idxprom48 = sext i32 %50 to i64
  %arrayidx49 = getelementptr inbounds ptr, ptr %48, i64 %idxprom48
  store ptr %46, ptr %arrayidx49, align 8
  br label %if.end56

if.else:                                          ; preds = %land.lhs.true39, %land.lhs.true35, %for.body32
  %51 = load ptr, ptr %mem28, align 8
  %ty50 = getelementptr inbounds %struct.Member, ptr %51, i32 0, i32 1
  %52 = load ptr, ptr %ty50, align 8
  %call51 = call ptr @new_initializer(ptr noundef %52, i1 noundef zeroext false)
  %53 = load ptr, ptr %init, align 8
  %children52 = getelementptr inbounds %struct.Initializer, ptr %53, i32 0, i32 5
  %54 = load ptr, ptr %children52, align 8
  %55 = load ptr, ptr %mem28, align 8
  %idx53 = getelementptr inbounds %struct.Member, ptr %55, i32 0, i32 4
  %56 = load i32, ptr %idx53, align 8
  %idxprom54 = sext i32 %56 to i64
  %arrayidx55 = getelementptr inbounds ptr, ptr %54, i64 %idxprom54
  store ptr %call51, ptr %arrayidx55, align 8
  br label %if.end56

if.end56:                                         ; preds = %if.else, %if.then42
  br label %for.inc57

for.inc57:                                        ; preds = %if.end56
  %57 = load ptr, ptr %mem28, align 8
  %next58 = getelementptr inbounds %struct.Member, ptr %57, i32 0, i32 0
  %58 = load ptr, ptr %next58, align 8
  store ptr %58, ptr %mem28, align 8
  br label %for.cond30, !llvm.loop !33

for.end59:                                        ; preds = %for.cond30
  %59 = load ptr, ptr %init, align 8
  store ptr %59, ptr %retval, align 8
  br label %return

if.end60:                                         ; preds = %lor.lhs.false
  %60 = load ptr, ptr %init, align 8
  store ptr %60, ptr %retval, align 8
  br label %return

return:                                           ; preds = %if.end60, %for.end59, %for.end, %if.then3
  %61 = load ptr, ptr %retval, align 8
  ret ptr %61
}