; Function Attrs: nofree nounwind memory(readwrite, argmem: read) uwtable
define internal fastcc noalias noundef ptr @new_initializer(ptr noundef %ty, i1 noundef zeroext %is_flexible) unnamed_addr #6 {
entry:
  %call = tail call noalias dereferenceable_or_null(56) ptr @calloc(i64 noundef 1, i64 noundef 56) #14
  %ty1 = getelementptr inbounds %struct.Initializer, ptr %call, i64 0, i32 1
  store ptr %ty, ptr %ty1, align 8
  %0 = load i32, ptr %ty, align 8
  switch i32 %0, label %return [
    i32 12, label %if.then
    i32 14, label %if.then18
    i32 15, label %if.then18
  ]

if.then:                                          ; preds = %entry
  br i1 %is_flexible, label %land.lhs.true, label %if.end

land.lhs.true:                                    ; preds = %if.then
  %size = getelementptr inbounds %struct.Type, ptr %ty, i64 0, i32 1
  %1 = load i32, ptr %size, align 4
  %cmp2 = icmp slt i32 %1, 0
  br i1 %cmp2, label %if.then3, label %if.end

if.then3:                                         ; preds = %land.lhs.true
  %is_flexible4 = getelementptr inbounds %struct.Initializer, ptr %call, i64 0, i32 3
  store i8 1, ptr %is_flexible4, align 8
  br label %return

if.end:                                           ; preds = %land.lhs.true, %if.then
  %array_len = getelementptr inbounds %struct.Type, ptr %ty, i64 0, i32 9
  %2 = load i32, ptr %array_len, align 8
  %conv = sext i32 %2 to i64
  %call5 = tail call noalias ptr @calloc(i64 noundef %conv, i64 noundef 8) #14
  %children = getelementptr inbounds %struct.Initializer, ptr %call, i64 0, i32 5
  store ptr %call5, ptr %children, align 8
  %cmp738 = icmp sgt i32 %2, 0
  br i1 %cmp738, label %for.body.lr.ph, label %return

for.body.lr.ph:                                   ; preds = %if.end
  %base = getelementptr inbounds %struct.Type, ptr %ty, i64 0, i32 6
  br label %for.body

for.body:                                         ; preds = %for.body.lr.ph, %for.body
  %indvars.iv = phi i64 [ 0, %for.body.lr.ph ], [ %indvars.iv.next, %for.body ]
  %3 = load ptr, ptr %base, align 8
  %call9 = tail call fastcc ptr @new_initializer(ptr noundef %3, i1 noundef zeroext false)
  %arrayidx = getelementptr inbounds ptr, ptr %call5, i64 %indvars.iv
  store ptr %call9, ptr %arrayidx, align 8
  %indvars.iv.next = add nuw nsw i64 %indvars.iv, 1
  %4 = load i32, ptr %array_len, align 8
  %5 = sext i32 %4 to i64
  %cmp7 = icmp slt i64 %indvars.iv.next, %5
  br i1 %cmp7, label %for.body, label %return, !llvm.loop !36

if.then18:                                        ; preds = %entry, %entry
  %members = getelementptr inbounds %struct.Type, ptr %ty, i64 0, i32 12
  br label %for.cond19

for.cond19:                                       ; preds = %for.cond19, %if.then18
  %len.0 = phi i32 [ 0, %if.then18 ], [ %inc22, %for.cond19 ]
  %mem.0.in = phi ptr [ %members, %if.then18 ], [ %mem.0, %for.cond19 ]
  %mem.0 = load ptr, ptr %mem.0.in, align 8
  %tobool20.not = icmp eq ptr %mem.0, null
  %inc22 = add nuw nsw i32 %len.0, 1
  br i1 %tobool20.not, label %for.end24, label %for.cond19, !llvm.loop !37

for.end24:                                        ; preds = %for.cond19
  %conv25 = zext nneg i32 %len.0 to i64
  %call26 = tail call noalias ptr @calloc(i64 noundef %conv25, i64 noundef 8) #14
  %children27 = getelementptr inbounds %struct.Initializer, ptr %call, i64 0, i32 5
  store ptr %call26, ptr %children27, align 8
  %mem28.035 = load ptr, ptr %members, align 8
  %tobool31.not36 = icmp eq ptr %mem28.035, null
  br i1 %tobool31.not36, label %return, label %for.body32.lr.ph

for.body32.lr.ph:                                 ; preds = %for.end24
  %is_flexible36 = getelementptr inbounds %struct.Type, ptr %ty, i64 0, i32 13
  br i1 %is_flexible, label %for.body32.us, label %for.body32

for.body32.us:                                    ; preds = %for.body32.lr.ph, %for.inc57.us
  %mem28.037.us = phi ptr [ %mem28.0.us, %for.inc57.us ], [ %mem28.035, %for.body32.lr.ph ]
  %6 = load i8, ptr %is_flexible36, align 8
  %7 = and i8 %6, 1
  %tobool37.not.us = icmp eq i8 %7, 0
  br i1 %tobool37.not.us, label %if.else.us, label %land.lhs.true39.us

land.lhs.true39.us:                               ; preds = %for.body32.us
  %8 = load ptr, ptr %mem28.037.us, align 8
  %tobool41.not.us = icmp eq ptr %8, null
  br i1 %tobool41.not.us, label %if.then42.us, label %if.else.us

if.then42.us:                                     ; preds = %land.lhs.true39.us
  %call43.us = tail call noalias dereferenceable_or_null(56) ptr @calloc(i64 noundef 1, i64 noundef 56) #14
  %ty44.us = getelementptr inbounds %struct.Member, ptr %mem28.037.us, i64 0, i32 1
  %9 = load ptr, ptr %ty44.us, align 8
  %ty45.us = getelementptr inbounds %struct.Initializer, ptr %call43.us, i64 0, i32 1
  store ptr %9, ptr %ty45.us, align 8
  %is_flexible46.us = getelementptr inbounds %struct.Initializer, ptr %call43.us, i64 0, i32 3
  store i8 1, ptr %is_flexible46.us, align 8
  br label %for.inc57.us

if.else.us:                                       ; preds = %land.lhs.true39.us, %for.body32.us
  %ty50.us = getelementptr inbounds %struct.Member, ptr %mem28.037.us, i64 0, i32 1
  %10 = load ptr, ptr %ty50.us, align 8
  %call51.us = tail call fastcc ptr @new_initializer(ptr noundef %10, i1 noundef zeroext false)
  br label %for.inc57.us

for.inc57.us:                                     ; preds = %if.else.us, %if.then42.us
  %call51.us.sink = phi ptr [ %call51.us, %if.else.us ], [ %call43.us, %if.then42.us ]
  %idx53.us = getelementptr inbounds %struct.Member, ptr %mem28.037.us, i64 0, i32 4
  %11 = load i32, ptr %idx53.us, align 8
  %idxprom54.us = sext i32 %11 to i64
  %arrayidx55.us = getelementptr inbounds ptr, ptr %call26, i64 %idxprom54.us
  store ptr %call51.us.sink, ptr %arrayidx55.us, align 8
  %mem28.0.us = load ptr, ptr %mem28.037.us, align 8
  %tobool31.not.us = icmp eq ptr %mem28.0.us, null
  br i1 %tobool31.not.us, label %return, label %for.body32.us, !llvm.loop !38

for.body32:                                       ; preds = %for.body32.lr.ph, %for.body32
  %mem28.037 = phi ptr [ %mem28.0, %for.body32 ], [ %mem28.035, %for.body32.lr.ph ]
  %ty50 = getelementptr inbounds %struct.Member, ptr %mem28.037, i64 0, i32 1
  %12 = load ptr, ptr %ty50, align 8
  %call51 = tail call fastcc ptr @new_initializer(ptr noundef %12, i1 noundef zeroext false)
  %idx53 = getelementptr inbounds %struct.Member, ptr %mem28.037, i64 0, i32 4
  %13 = load i32, ptr %idx53, align 8
  %idxprom54 = sext i32 %13 to i64
  %arrayidx55 = getelementptr inbounds ptr, ptr %call26, i64 %idxprom54
  store ptr %call51, ptr %arrayidx55, align 8
  %mem28.0 = load ptr, ptr %mem28.037, align 8
  %tobool31.not = icmp eq ptr %mem28.0, null
  br i1 %tobool31.not, label %return, label %for.body32, !llvm.loop !38

return:                                           ; preds = %for.body32, %for.inc57.us, %for.body, %for.end24, %if.end, %entry, %if.then3
  ret ptr %call
}